target datalayout = "e-m:e-p270:32:32-p271:32:32-p272:64:64-i64:64-i128:128-f80:128-n8:16:32:64-S128"
target triple = "x86_64-pc-linux-gnu"

%struct.sgr_params_type = type { [2 x i32], [2 x i32] }

@av1_one_by_x = hidden constant [25 x i32] [i32 4096, i32 2048, i32 1365, i32 1024, i32 819, i32 683, i32 585, i32 512, i32 455, i32 410, i32 372, i32 341, i32 315, i32 293, i32 273, i32 256, i32 241, i32 228, i32 216, i32 205, i32 195, i32 186, i32 178, i32 171, i32 164], align 16

; Function Attrs: nounwind uwtable
define internal void @calculate_intermediate_result(ptr noundef %0, i32 noundef %1, i32 noundef %2, i32 noundef %3, i32 noundef %4, i32 noundef %5, i32 noundef %6, i32 noundef %7, ptr noundef %8, ptr noundef %9) #0 {
  %11 = alloca ptr, align 8
  %12 = alloca i32, align 4
  %13 = alloca i32, align 4
  %14 = alloca i32, align 4
  %15 = alloca i32, align 4
  %16 = alloca i32, align 4
  %17 = alloca i32, align 4
  %18 = alloca i32, align 4
  %19 = alloca ptr, align 8
  %20 = alloca ptr, align 8
  %21 = alloca ptr, align 8
  %22 = alloca i32, align 4
  %23 = alloca i32, align 4
  %24 = alloca i32, align 4
  %25 = alloca i32, align 4
  %26 = alloca i32, align 4
  %27 = alloca i32, align 4
  %28 = alloca i32, align 4
  %29 = alloca i32, align 4
  %30 = alloca i32, align 4
  %31 = alloca i32, align 4
  %32 = alloca i32, align 4
  %33 = alloca i32, align 4
  %34 = alloca i32, align 4
  %35 = alloca i32, align 4
  store ptr %0, ptr %11, align 8
  store i32 %1, ptr %12, align 4
  store i32 %2, ptr %13, align 4
  store i32 %3, ptr %14, align 4
  store i32 %4, ptr %15, align 4
  store i32 %5, ptr %16, align 4
  store i32 %6, ptr %17, align 4
  store i32 %7, ptr %18, align 4
  store ptr %8, ptr %19, align 8
  store ptr %9, ptr %20, align 8
  %36 = load i32, ptr %16, align 4
  %37 = sext i32 %36 to i64
  %38 = getelementptr inbounds [16 x %struct.sgr_params_type], ptr @av1_sgr_params, i64 0, i64 %37
  store ptr %38, ptr %21, align 8
  %39 = load ptr, ptr %21, align 8
  %40 = getelementptr inbounds nuw %struct.sgr_params_type, ptr %39, i32 0, i32 0
  %41 = load i32, ptr %17, align 4
  %42 = sext i32 %41 to i64
  %43 = getelementptr inbounds [2 x i32], ptr %40, i64 0, i64 %42
  %44 = load i32, ptr %43, align 4
  store i32 %44, ptr %22, align 4
  %45 = load i32, ptr %12, align 4
  %46 = add nsw i32 %45, 6
  store i32 %46, ptr %23, align 4
  %47 = load i32, ptr %13, align 4
  %48 = add nsw i32 %47, 6
  store i32 %48, ptr %24, align 4
  %49 = load i32, ptr %23, align 4
  %50 = add nsw i32 %49, 3
  %51 = and i32 %50, -4
  %52 = add nsw i32 %51, 16
  store i32 %52, ptr %25, align 4
  %53 = load i32, ptr %18, align 4
  %54 = icmp eq i32 %53, 0
  %55 = select i1 %54, i32 1, i32 2
  store i32 %55, ptr %26, align 4
  %56 = load ptr, ptr %11, align 8
  %57 = load i32, ptr %14, align 4
  %58 = mul nsw i32 %57, 3
  %59 = sext i32 %58 to i64
  %60 = sub i64 0, %59
  %61 = getelementptr inbounds i32, ptr %56, i64 %60
  %62 = getelementptr inbounds i32, ptr %61, i64 -3
  %63 = load i32, ptr %23, align 4
  %64 = load i32, ptr %24, align 4
  %65 = load i32, ptr %14, align 4
  %66 = load i32, ptr %22, align 4
  %67 = load ptr, ptr %20, align 8
  %68 = load i32, ptr %25, align 4
  call void @boxsum(ptr noundef %62, i32 noundef %63, i32 noundef %64, i32 noundef %65, i32 noundef %66, i32 noundef 0, ptr noundef %67, i32 noundef %68)
  %69 = load ptr, ptr %11, align 8
  %70 = load i32, ptr %14, align 4
  %71 = mul nsw i32 %70, 3
  %72 = sext i32 %71 to i64
  %73 = sub i64 0, %72
  %74 = getelementptr inbounds i32, ptr %69, i64 %73
  %75 = getelementptr inbounds i32, ptr %74, i64 -3
  %76 = load i32, ptr %23, align 4
  %77 = load i32, ptr %24, align 4
  %78 = load i32, ptr %14, align 4
  %79 = load i32, ptr %22, align 4
  %80 = load ptr, ptr %19, align 8
  %81 = load i32, ptr %25, align 4
  call void @boxsum(ptr noundef %75, i32 noundef %76, i32 noundef %77, i32 noundef %78, i32 noundef %79, i32 noundef 1, ptr noundef %80, i32 noundef %81)
  %82 = load i32, ptr %25, align 4
  %83 = mul nsw i32 3, %82
  %84 = add nsw i32 %83, 3
  %85 = load ptr, ptr %19, align 8
  %86 = sext i32 %84 to i64
  %87 = getelementptr inbounds i32, ptr %85, i64 %86
  store ptr %87, ptr %19, align 8
  %88 = load i32, ptr %25, align 4
  %89 = mul nsw i32 3, %88
  %90 = add nsw i32 %89, 3
  %91 = load ptr, ptr %20, align 8
  %92 = sext i32 %90 to i64
  %93 = getelementptr inbounds i32, ptr %91, i64 %92
  store ptr %93, ptr %20, align 8
  store i32 -1, ptr %27, align 4
  br label %94

94:                                               ; preds = %217, %10
  %95 = load i32, ptr %27, align 4
  %96 = load i32, ptr %13, align 4
  %97 = add nsw i32 %96, 1
  %98 = icmp slt i32 %95, %97
  br i1 %98, label %99, label %221

99:                                               ; preds = %94
  store i32 -1, ptr %28, align 4
  br label %100

100:                                              ; preds = %213, %99
  %101 = load i32, ptr %28, align 4
  %102 = load i32, ptr %12, align 4
  %103 = add nsw i32 %102, 1
  %104 = icmp slt i32 %101, %103
  br i1 %104, label %105, label %216

105:                                              ; preds = %100
  %106 = load i32, ptr %27, align 4
  %107 = load i32, ptr %25, align 4
  %108 = mul nsw i32 %106, %107
  %109 = load i32, ptr %28, align 4
  %110 = add nsw i32 %108, %109
  store i32 %110, ptr %29, align 4
  %111 = load i32, ptr %22, align 4
  %112 = mul nsw i32 2, %111
  %113 = add nsw i32 %112, 1
  %114 = load i32, ptr %22, align 4
  %115 = mul nsw i32 2, %114
  %116 = add nsw i32 %115, 1
  %117 = mul nsw i32 %113, %116
  store i32 %117, ptr %30, align 4
  %118 = load ptr, ptr %19, align 8
  %119 = load i32, ptr %29, align 4
  %120 = sext i32 %119 to i64
  %121 = getelementptr inbounds i32, ptr %118, i64 %120
  %122 = load i32, ptr %121, align 4
  %123 = load i32, ptr %15, align 4
  %124 = sub nsw i32 %123, 8
  %125 = mul nsw i32 2, %124
  %126 = shl i32 1, %125
  %127 = ashr i32 %126, 1
  %128 = add nsw i32 %122, %127
  %129 = load i32, ptr %15, align 4
  %130 = sub nsw i32 %129, 8
  %131 = mul nsw i32 2, %130
  %132 = ashr i32 %128, %131
  store i32 %132, ptr %31, align 4
  %133 = load ptr, ptr %20, align 8
  %134 = load i32, ptr %29, align 4
  %135 = sext i32 %134 to i64
  %136 = getelementptr inbounds i32, ptr %133, i64 %135
  %137 = load i32, ptr %136, align 4
  %138 = load i32, ptr %15, align 4
  %139 = sub nsw i32 %138, 8
  %140 = shl i32 1, %139
  %141 = ashr i32 %140, 1
  %142 = add nsw i32 %137, %141
  %143 = load i32, ptr %15, align 4
  %144 = sub nsw i32 %143, 8
  %145 = ashr i32 %142, %144
  store i32 %145, ptr %32, align 4
  %146 = load i32, ptr %31, align 4
  %147 = load i32, ptr %30, align 4
  %148 = mul i32 %146, %147
  %149 = load i32, ptr %32, align 4
  %150 = load i32, ptr %32, align 4
  %151 = mul i32 %149, %150
  %152 = icmp ult i32 %148, %151
  br i1 %152, label %153, label %154

153:                                              ; preds = %105
  br label %162

154:                                              ; preds = %105
  %155 = load i32, ptr %31, align 4
  %156 = load i32, ptr %30, align 4
  %157 = mul i32 %155, %156
  %158 = load i32, ptr %32, align 4
  %159 = load i32, ptr %32, align 4
  %160 = mul i32 %158, %159
  %161 = sub i32 %157, %160
  br label %162

162:                                              ; preds = %154, %153
  %163 = phi i32 [ 0, %153 ], [ %161, %154 ]
  store i32 %163, ptr %33, align 4
  %164 = load ptr, ptr %21, align 8
  %165 = getelementptr inbounds nuw %struct.sgr_params_type, ptr %164, i32 0, i32 1
  %166 = load i32, ptr %17, align 4
  %167 = sext i32 %166 to i64
  %168 = getelementptr inbounds [2 x i32], ptr %165, i64 0, i64 %167
  %169 = load i32, ptr %168, align 4
  store i32 %169, ptr %34, align 4
  %170 = load i32, ptr %33, align 4
  %171 = load i32, ptr %34, align 4
  %172 = mul i32 %170, %171
  %173 = add i32 %172, 524288
  %174 = lshr i32 %173, 20
  store i32 %174, ptr %35, align 4
  %175 = load i32, ptr %35, align 4
  %176 = icmp ult i32 %175, 255
  br i1 %176, label %177, label %179

177:                                              ; preds = %162
  %178 = load i32, ptr %35, align 4
  br label %180

179:                                              ; preds = %162
  br label %180

180:                                              ; preds = %179, %177
  %181 = phi i32 [ %178, %177 ], [ 255, %179 ]
  %182 = zext i32 %181 to i64
  %183 = getelementptr inbounds [256 x i32], ptr @av1_x_by_xplus1, i64 0, i64 %182
  %184 = load i32, ptr %183, align 4
  %185 = load ptr, ptr %19, align 8
  %186 = load i32, ptr %29, align 4
  %187 = sext i32 %186 to i64
  %188 = getelementptr inbounds i32, ptr %185, i64 %187
  store i32 %184, ptr %188, align 4
  %189 = load ptr, ptr %19, align 8
  %190 = load i32, ptr %29, align 4
  %191 = sext i32 %190 to i64
  %192 = getelementptr inbounds i32, ptr %189, i64 %191
  %193 = load i32, ptr %192, align 4
  %194 = sub nsw i32 256, %193
  %195 = load ptr, ptr %20, align 8
  %196 = load i32, ptr %29, align 4
  %197 = sext i32 %196 to i64
  %198 = getelementptr inbounds i32, ptr %195, i64 %197
  %199 = load i32, ptr %198, align 4
  %200 = mul i32 %194, %199
  %201 = load i32, ptr %30, align 4
  %202 = sub nsw i32 %201, 1
  %203 = sext i32 %202 to i64
  %204 = getelementptr inbounds [25 x i32], ptr @av1_one_by_x, i64 0, i64 %203
  %205 = load i32, ptr %204, align 4
  %206 = mul i32 %200, %205
  %207 = add i32 %206, 2048
  %208 = lshr i32 %207, 12
  %209 = load ptr, ptr %20, align 8
  %210 = load i32, ptr %29, align 4
  %211 = sext i32 %210 to i64
  %212 = getelementptr inbounds i32, ptr %209, i64 %211
  store i32 %208, ptr %212, align 4
  br label %213

213:                                              ; preds = %180
  %214 = load i32, ptr %28, align 4
  %215 = add nsw i32 %214, 1
  store i32 %215, ptr %28, align 4
  br label %100, !llvm.loop !35

216:                                              ; preds = %100
  br label %217

217:                                              ; preds = %216
  %218 = load i32, ptr %26, align 4
  %219 = load i32, ptr %27, align 4
  %220 = add nsw i32 %219, %218
  store i32 %220, ptr %27, align 4
  br label %94, !llvm.loop !36

221:                                              ; preds = %94
  ret void
}