; Function Attrs: nofree norecurse nosync nounwind memory(argmem: readwrite) uwtable
define internal fastcc void @calculate_intermediate_result(ptr noundef nonnull readonly captures(none) %0, i32 noundef %1, i32 noundef %2, i32 noundef range(i32 -2147483642, -2147483648) %3, i32 noundef %4, i32 noundef %5, i32 noundef range(i32 0, 2) %6, i32 noundef range(i32 0, 2) %7, ptr noundef nonnull %8, ptr noundef nonnull %9) unnamed_addr #9 {
  %11 = sext i32 %5 to i64
  %12 = getelementptr inbounds [16 x %struct.sgr_params_type], ptr @av1_sgr_params, i64 0, i64 %11
  %13 = zext nneg i32 %6 to i64
  %14 = getelementptr inbounds nuw [2 x i32], ptr %12, i64 0, i64 %13
  %15 = load i32, ptr %14, align 4
  %16 = add nsw i32 %1, 6
  %17 = add nsw i32 %2, 6
  %18 = add nsw i32 %1, 9
  %19 = and i32 %18, -4
  %20 = add nsw i32 %19, 16
  %21 = icmp eq i32 %7, 0
  %22 = select i1 %21, i64 1, i64 2
  %23 = mul nsw i32 %3, 3
  %24 = sext i32 %23 to i64
  %25 = sub nsw i64 0, %24
  %26 = getelementptr inbounds i32, ptr %0, i64 %25
  %27 = getelementptr inbounds i8, ptr %26, i64 -12
  tail call fastcc void @boxsum(ptr noundef %27, i32 noundef %16, i32 noundef %17, i32 noundef %3, i32 noundef %15, i32 noundef 0, ptr noundef %9, i32 noundef %20)
  tail call fastcc void @boxsum(ptr noundef %27, i32 noundef %16, i32 noundef %17, i32 noundef %3, i32 noundef %15, i32 noundef 1, ptr noundef %8, i32 noundef %20)
  %28 = mul nsw i32 %20, 3
  %29 = or disjoint i32 %28, 3
  %30 = sext i32 %29 to i64
  %31 = getelementptr inbounds i32, ptr %8, i64 %30
  %32 = getelementptr inbounds i32, ptr %9, i64 %30
  %.not75 = icmp slt i32 %2, -1
  br i1 %.not75, label %._crit_edge77, label %.preheader.lr.ph

.preheader.lr.ph:                                 ; preds = %10
  %.not7273 = icmp slt i32 %1, -1
  %33 = shl nsw i32 %15, 1
  %34 = or disjoint i32 %33, 1
  %35 = mul nsw i32 %34, %34
  %36 = add nsw i32 %4, -8
  %37 = shl nsw i32 %36, 1
  %38 = shl nuw i32 1, %37
  %39 = lshr i32 %38, 1
  %40 = shl nuw i32 1, %36
  %41 = ashr i32 %40, 1
  br i1 %.not7273, label %._crit_edge77, label %.preheader.lr.ph.split

.preheader.lr.ph.split:                           ; preds = %.preheader.lr.ph
  %42 = add nsw i32 %35, -1
  %43 = zext nneg i32 %42 to i64
  %44 = getelementptr inbounds nuw [25 x i32], ptr @av1_one_by_x, i64 0, i64 %43
  %45 = getelementptr inbounds nuw i8, ptr %12, i64 8
  %46 = getelementptr inbounds nuw [2 x i32], ptr %45, i64 0, i64 %13
  %47 = load i32, ptr %46, align 4
  %48 = load i32, ptr %44, align 8
  %49 = add i32 %1, 1
  %50 = sext i32 %20 to i64
  %51 = sext i32 %2 to i64
  %wide.trip.count = zext i32 %49 to i64
  br label %.preheader

.preheader:                                       ; preds = %.preheader.lr.ph.split, %._crit_edge
  %indvars.iv80 = phi i64 [ -1, %.preheader.lr.ph.split ], [ %indvars.iv.next81, %._crit_edge ]
  %52 = mul nsw i64 %indvars.iv80, %50
  br label %53

53:                                               ; preds = %.preheader, %53
  %indvars.iv = phi i64 [ -1, %.preheader ], [ %indvars.iv.next, %53 ]
  %54 = add nsw i64 %indvars.iv, %52
  %55 = getelementptr inbounds i32, ptr %31, i64 %54
  %56 = load i32, ptr %55, align 4
  %57 = add nsw i32 %56, %39
  %58 = ashr i32 %57, %37
  %59 = getelementptr inbounds i32, ptr %32, i64 %54
  %60 = load i32, ptr %59, align 4
  %61 = add nsw i32 %60, %41
  %62 = ashr i32 %61, %36
  %63 = mul i32 %58, %35
  %64 = mul i32 %62, %62
  %spec.select = tail call i32 @llvm.usub.sat.i32(i32 %63, i32 %64)
  %65 = mul i32 %spec.select, %47
  %66 = add i32 %65, 524288
  %67 = lshr i32 %66, 20
  %68 = tail call i32 @llvm.umin.i32(i32 %67, i32 255)
  %69 = zext nneg i32 %68 to i64
  %70 = getelementptr inbounds nuw [256 x i32], ptr @av1_x_by_xplus1, i64 0, i64 %69
  %71 = load i32, ptr %70, align 4
  store i32 %71, ptr %55, align 4
  %72 = sub nsw i32 256, %71
  %73 = load i32, ptr %59, align 4
  %74 = mul i32 %73, %72
  %75 = mul i32 %74, %48
  %76 = add i32 %75, 2048
  %77 = lshr i32 %76, 12
  store i32 %77, ptr %59, align 4
  %indvars.iv.next = add nsw i64 %indvars.iv, 1
  %exitcond.not = icmp eq i64 %indvars.iv.next, %wide.trip.count
  br i1 %exitcond.not, label %._crit_edge, label %53, !llvm.loop !39

._crit_edge:                                      ; preds = %53
  %indvars.iv.next81 = add nsw i64 %indvars.iv80, %22
  %.not = icmp sgt i64 %indvars.iv.next81, %51
  br i1 %.not, label %._crit_edge77, label %.preheader, !llvm.loop !40

._crit_edge77:                                    ; preds = %._crit_edge, %.preheader.lr.ph, %10
  ret void
}